; Function Attrs: mustprogress nofree norecurse nosync nounwind willreturn memory(argmem: read) uwtable
define noundef i32 @_ZNK5draco10PointCloud18NumNamedAttributesENS_17GeometryAttribute4TypeE(ptr nocapture noundef nonnull readonly align 8 dereferenceable(164) %0, i32 noundef %1) local_unnamed_addr #4 align 2 {
  %3 = icmp eq i32 %1, -1
  %4 = icmp sgt i32 %1, 4
  %or.cond = or i1 %3, %4
  br i1 %or.cond, label %17, label %5

5:                                                ; preds = %2
  %6 = getelementptr inbounds i8, ptr %0, i64 40
  %7 = sext i32 %1 to i64
  %8 = getelementptr inbounds [5 x %"class.std::vector.2"], ptr %6, i64 0, i64 %7
  %9 = getelementptr inbounds i8, ptr %8, i64 8
  %10 = load ptr, ptr %9, align 8
  %11 = load ptr, ptr %8, align 8
  %12 = ptrtoint ptr %10 to i64
  %13 = ptrtoint ptr %11 to i64
  %14 = sub i64 %12, %13
  %15 = lshr exact i64 %14, 2
  %16 = trunc i64 %15 to i32
  br label %17

17:                                               ; preds = %2, %5
  %.0 = phi i32 [ %16, %5 ], [ 0, %2 ]
  ret i32 %.0
}